; ModuleID = '7/534.c'
source_filename = "7/534.c"
target datalayout = "e-m:e-p270:32:32-p271:32:32-p272:64:64-i64:64-f80:128-n8:16:32:64-S128"
target triple = "x86_64-pc-linux-gnu"

@.str = private unnamed_addr constant [7 x i8] c"%s%s%s\00", align 1
@.str.1 = private unnamed_addr constant [3 x i8] c"%c\00", align 1
@.str.2 = private unnamed_addr constant [3 x i8] c"%s\00", align 1

; Function Attrs: noinline nounwind uwtable
define dso_local i32 @main() #0 {
  %1 = alloca i32, align 4
  %2 = alloca [256 x i8], align 16
  %3 = alloca [256 x i8], align 16
  %4 = alloca [256 x i8], align 16
  %5 = alloca i32, align 4
  %6 = alloca i32, align 4
  %7 = alloca i32, align 4
  %8 = alloca i32, align 4
  %9 = alloca i32, align 4
  %10 = alloca i32, align 4
  %11 = alloca i32, align 4
  store i32 0, i32* %1, align 4
  %12 = getelementptr inbounds [256 x i8], [256 x i8]* %2, i64 0, i64 0
  %13 = getelementptr inbounds [256 x i8], [256 x i8]* %3, i64 0, i64 0
  %14 = getelementptr inbounds [256 x i8], [256 x i8]* %4, i64 0, i64 0
  %15 = call i32 (i8*, ...) @__isoc99_scanf(i8* getelementptr inbounds ([7 x i8], [7 x i8]* @.str, i64 0, i64 0), i8* %12, i8* %13, i8* %14)
  %16 = getelementptr inbounds [256 x i8], [256 x i8]* %2, i64 0, i64 0
  %17 = call i64 @strlen(i8* %16) #3
  %18 = trunc i64 %17 to i32
  store i32 %18, i32* %9, align 4
  %19 = getelementptr inbounds [256 x i8], [256 x i8]* %3, i64 0, i64 0
  %20 = call i64 @strlen(i8* %19) #3
  %21 = trunc i64 %20 to i32
  store i32 %21, i32* %10, align 4
  store i32 0, i32* %5, align 4
  br label %22

22:                                               ; preds = %112, %0
  %23 = load i32, i32* %5, align 4
  %24 = load i32, i32* %9, align 4
  %25 = icmp slt i32 %23, %24
  br i1 %25, label %26, label %115

26:                                               ; preds = %22
  %27 = getelementptr inbounds [256 x i8], [256 x i8]* %3, i64 0, i64 0
  %28 = load i8, i8* %27, align 16
  %29 = sext i8 %28 to i32
  %30 = load i32, i32* %5, align 4
  %31 = sext i32 %30 to i64
  %32 = getelementptr inbounds [256 x i8], [256 x i8]* %2, i64 0, i64 %31
  %33 = load i8, i8* %32, align 1
  %34 = sext i8 %33 to i32
  %35 = icmp eq i32 %29, %34
  br i1 %35, label %36, label %107

36:                                               ; preds = %26
  store i32 0, i32* %8, align 4
  store i32 0, i32* %6, align 4
  br label %37

37:                                               ; preds = %63, %36
  %38 = load i32, i32* %6, align 4
  %39 = load i32, i32* %10, align 4
  %40 = icmp slt i32 %38, %39
  br i1 %40, label %41, label %66

41:                                               ; preds = %37
  %42 = load i32, i32* %6, align 4
  %43 = sext i32 %42 to i64
  %44 = getelementptr inbounds [256 x i8], [256 x i8]* %3, i64 0, i64 %43
  %45 = load i8, i8* %44, align 1
  %46 = sext i8 %45 to i32
  %47 = load i32, i32* %5, align 4
  %48 = load i32, i32* %6, align 4
  %49 = add nsw i32 %47, %48
  %50 = sext i32 %49 to i64
  %51 = getelementptr inbounds [256 x i8], [256 x i8]* %2, i64 0, i64 %50
  %52 = load i8, i8* %51, align 1
  %53 = sext i8 %52 to i32
  %54 = icmp eq i32 %46, %53
  br i1 %54, label %55, label %62

55:                                               ; preds = %41
  %56 = load i32, i32* %8, align 4
  %57 = load i32, i32* %10, align 4
  %58 = icmp slt i32 %56, %57
  br i1 %58, label %59, label %62

59:                                               ; preds = %55
  %60 = load i32, i32* %8, align 4
  %61 = add nsw i32 %60, 1
  store i32 %61, i32* %8, align 4
  br label %62

62:                                               ; preds = %59, %55, %41
  br label %63

63:                                               ; preds = %62
  %64 = load i32, i32* %6, align 4
  %65 = add nsw i32 %64, 1
  store i32 %65, i32* %6, align 4
  br label %37

66:                                               ; preds = %37
  %67 = load i32, i32* %8, align 4
  %68 = load i32, i32* %10, align 4
  %69 = icmp eq i32 %67, %68
  br i1 %69, label %70, label %106

70:                                               ; preds = %66
  store i32 0, i32* %7, align 4
  br label %71

71:                                               ; preds = %82, %70
  %72 = load i32, i32* %7, align 4
  %73 = load i32, i32* %5, align 4
  %74 = icmp slt i32 %72, %73
  br i1 %74, label %75, label %85

75:                                               ; preds = %71
  %76 = load i32, i32* %7, align 4
  %77 = sext i32 %76 to i64
  %78 = getelementptr inbounds [256 x i8], [256 x i8]* %2, i64 0, i64 %77
  %79 = load i8, i8* %78, align 1
  %80 = sext i8 %79 to i32
  %81 = call i32 (i8*, ...) @printf(i8* getelementptr inbounds ([3 x i8], [3 x i8]* @.str.1, i64 0, i64 0), i32 %80)
  br label %82

82:                                               ; preds = %75
  %83 = load i32, i32* %7, align 4
  %84 = add nsw i32 %83, 1
  store i32 %84, i32* %7, align 4
  br label %71

85:                                               ; preds = %71
  %86 = getelementptr inbounds [256 x i8], [256 x i8]* %4, i64 0, i64 0
  %87 = call i32 (i8*, ...) @printf(i8* getelementptr inbounds ([3 x i8], [3 x i8]* @.str.2, i64 0, i64 0), i8* %86)
  %88 = load i32, i32* %5, align 4
  %89 = load i32, i32* %10, align 4
  %90 = add nsw i32 %88, %89
  store i32 %90, i32* %7, align 4
  br label %91

91:                                               ; preds = %102, %85
  %92 = load i32, i32* %7, align 4
  %93 = load i32, i32* %9, align 4
  %94 = icmp slt i32 %92, %93
  br i1 %94, label %95, label %105

95:                                               ; preds = %91
  %96 = load i32, i32* %7, align 4
  %97 = sext i32 %96 to i64
  %98 = getelementptr inbounds [256 x i8], [256 x i8]* %2, i64 0, i64 %97
  %99 = load i8, i8* %98, align 1
  %100 = sext i8 %99 to i32
  %101 = call i32 (i8*, ...) @printf(i8* getelementptr inbounds ([3 x i8], [3 x i8]* @.str.1, i64 0, i64 0), i32 %100)
  br label %102

102:                                              ; preds = %95
  %103 = load i32, i32* %7, align 4
  %104 = add nsw i32 %103, 1
  store i32 %104, i32* %7, align 4
  br label %91

105:                                              ; preds = %91
  store i32 1, i32* %11, align 4
  br label %106

106:                                              ; preds = %105, %66
  br label %107

107:                                              ; preds = %106, %26
  %108 = load i32, i32* %11, align 4
  %109 = icmp eq i32 %108, 1
  br i1 %109, label %110, label %111

110:                                              ; preds = %107
  br label %115

111:                                              ; preds = %107
  br label %112

112:                                              ; preds = %111
  %113 = load i32, i32* %5, align 4
  %114 = add nsw i32 %113, 1
  store i32 %114, i32* %5, align 4
  br label %22

115:                                              ; preds = %110, %22
  %116 = load i32, i32* %11, align 4
  %117 = icmp ne i32 %116, 1
  br i1 %117, label %118, label %121

118:                                              ; preds = %115
  %119 = getelementptr inbounds [256 x i8], [256 x i8]* %2, i64 0, i64 0
  %120 = call i32 (i8*, ...) @printf(i8* getelementptr inbounds ([3 x i8], [3 x i8]* @.str.2, i64 0, i64 0), i8* %119)
  br label %121

121:                                              ; preds = %118, %115
  ret i32 0
}

declare dso_local i32 @__isoc99_scanf(i8*, ...) #1

; Function Attrs: nounwind readonly
declare dso_local i64 @strlen(i8*) #2

declare dso_local i32 @printf(i8*, ...) #1


!llvm.module.flags = !{!0}
!llvm.ident = !{!1}

!0 = !{i32 1, !"wchar_size", i32 4}
!1 = !{!"clang version 10.0.0-4ubuntu1 "}
